; Function Attrs: nounwind sspstrong uwtable
define i64 @rsock_sendto_blocking(ptr noundef readonly captures(none) %0) local_unnamed_addr #0 {
  %2 = getelementptr inbounds nuw i8, ptr %0, i64 8
  %3 = load i64, ptr %2, align 8, !tbaa !22
  %4 = load i32, ptr %0, align 8, !tbaa !25
  %5 = inttoptr i64 %3 to ptr
  %6 = load i64, ptr %5, align 8, !tbaa !26, !noalias !28
  %7 = and i64 %6, 8192
  %.not.i.i = icmp eq i64 %7, 0
  %8 = getelementptr inbounds nuw i8, ptr %5, i64 24
  br i1 %.not.i.i, label %RSTRING_PTR.exit, label %9

9:                                                ; preds = %1
  %.sroa.2.0.copyload.i = load ptr, ptr %8, align 8
  br label %RSTRING_PTR.exit

RSTRING_PTR.exit:                                 ; preds = %1, %9
  %.sroa.2.0.i = phi ptr [ %.sroa.2.0.copyload.i, %9 ], [ %8, %1 ]
  %10 = getelementptr inbounds nuw i8, ptr %5, i64 16
  %11 = load i64, ptr %10, align 8, !tbaa !31
  %12 = getelementptr inbounds nuw i8, ptr %0, i64 4
  %13 = load i32, ptr %12, align 4, !tbaa !33
  %14 = getelementptr inbounds nuw i8, ptr %0, i64 16
  %15 = load ptr, ptr %14, align 8, !tbaa !34
  %16 = getelementptr inbounds nuw i8, ptr %0, i64 24
  %17 = load i32, ptr %16, align 8, !tbaa !35
  %18 = tail call i64 @sendto(i32 noundef %4, ptr noundef %.sroa.2.0.i, i64 noundef %11, i32 noundef %13, ptr %15, i32 noundef %17) #10
  ret i64 %18
}